target datalayout = "e-m:e-p270:32:32-p271:32:32-p272:64:64-i64:64-i128:128-f80:128-n8:16:32:64-S128"
target triple = "x86_64-pc-linux-gnu"

@ieee80211_cap_handle = internal global ptr null, align 8
@wlancap_cap_handle = internal global ptr null, align 8

; Function Attrs: inlinehint nounwind null_pointer_is_valid sspstrong uwtable
define internal i32 @pntoh32(ptr noundef %0) #8 {
  %2 = alloca ptr, align 8
  store ptr %0, ptr %2, align 8
  %3 = load ptr, ptr %2, align 8
  %4 = getelementptr i8, ptr %3, i64 0
  %5 = load i8, ptr %4, align 1
  %6 = zext i8 %5 to i32
  %7 = shl i32 %6, 24
  %8 = load ptr, ptr %2, align 8
  %9 = getelementptr i8, ptr %8, i64 1
  %10 = load i8, ptr %9, align 1
  %11 = zext i8 %10 to i32
  %12 = shl i32 %11, 16
  %13 = or i32 %7, %12
  %14 = load ptr, ptr %2, align 8
  %15 = getelementptr i8, ptr %14, i64 2
  %16 = load i8, ptr %15, align 1
  %17 = zext i8 %16 to i32
  %18 = shl i32 %17, 8
  %19 = or i32 %13, %18
  %20 = load ptr, ptr %2, align 8
  %21 = getelementptr i8, ptr %20, i64 3
  %22 = load i8, ptr %21, align 1
  %23 = zext i8 %22 to i32
  %24 = shl i32 %23, 0
  %25 = or i32 %19, %24
  ret i32 %25
}

; Function Attrs: null_pointer_is_valid sspstrong uwtable
define internal zeroext i1 @capture_prism(ptr noundef %0, i32 noundef %1, i32 noundef %2, ptr noundef %3, ptr noundef %4) #0 {
  %6 = alloca i1, align 1
  %7 = alloca ptr, align 8
  %8 = alloca i32, align 4
  %9 = alloca i32, align 4
  %10 = alloca ptr, align 8
  %11 = alloca ptr, align 8
  %12 = alloca i32, align 4
  %13 = alloca i32, align 4
  store ptr %0, ptr %7, align 8
  store i32 %1, ptr %8, align 4
  store i32 %2, ptr %9, align 4
  store ptr %3, ptr %10, align 8
  store ptr %4, ptr %11, align 8
  call void @llvm.lifetime.start.p0(i64 4, ptr %12) #9
  %14 = load i32, ptr %8, align 4
  %15 = add i32 %14, 4
  %16 = load i32, ptr %8, align 4
  %17 = icmp ugt i32 %15, %16
  br i1 %17, label %18, label %23

18:                                               ; preds = %5
  %19 = load i32, ptr %8, align 4
  %20 = add i32 %19, 4
  %21 = load i32, ptr %9, align 4
  %22 = icmp ule i32 %20, %21
  br i1 %22, label %24, label %23

23:                                               ; preds = %18, %5
  store i1 false, ptr %6, align 1
  store i32 1, ptr %13, align 4
  br label %61

24:                                               ; preds = %18
  %25 = load ptr, ptr %7, align 8
  %26 = call i32 @pntoh32(ptr noundef %25)
  store i32 %26, ptr %12, align 4
  %27 = load i32, ptr %12, align 4
  %28 = icmp eq i32 %27, -2145316863
  br i1 %28, label %32, label %29

29:                                               ; preds = %24
  %30 = load i32, ptr %12, align 4
  %31 = icmp eq i32 %30, -2145316862
  br i1 %31, label %32, label %40

32:                                               ; preds = %29, %24
  %33 = load ptr, ptr @wlancap_cap_handle, align 8
  %34 = load ptr, ptr %7, align 8
  %35 = load i32, ptr %8, align 4
  %36 = load i32, ptr %9, align 4
  %37 = load ptr, ptr %10, align 8
  %38 = load ptr, ptr %11, align 8
  %39 = call zeroext i1 @call_capture_dissector(ptr noundef %33, ptr noundef %34, i32 noundef %35, i32 noundef %36, ptr noundef %37, ptr noundef %38)
  store i1 %39, ptr %6, align 1
  store i32 1, ptr %13, align 4
  br label %61

40:                                               ; preds = %29
  %41 = load i32, ptr %8, align 4
  %42 = add i32 %41, 144
  %43 = load i32, ptr %8, align 4
  %44 = icmp ugt i32 %42, %43
  br i1 %44, label %45, label %50

45:                                               ; preds = %40
  %46 = load i32, ptr %8, align 4
  %47 = add i32 %46, 144
  %48 = load i32, ptr %9, align 4
  %49 = icmp ule i32 %47, %48
  br i1 %49, label %51, label %50

50:                                               ; preds = %45, %40
  store i1 false, ptr %6, align 1
  store i32 1, ptr %13, align 4
  br label %61

51:                                               ; preds = %45
  %52 = load i32, ptr %8, align 4
  %53 = add i32 %52, 144
  store i32 %53, ptr %8, align 4
  %54 = load ptr, ptr @ieee80211_cap_handle, align 8
  %55 = load ptr, ptr %7, align 8
  %56 = load i32, ptr %8, align 4
  %57 = load i32, ptr %9, align 4
  %58 = load ptr, ptr %10, align 8
  %59 = load ptr, ptr %11, align 8
  %60 = call zeroext i1 @call_capture_dissector(ptr noundef %54, ptr noundef %55, i32 noundef %56, i32 noundef %57, ptr noundef %58, ptr noundef %59)
  store i1 %60, ptr %6, align 1
  store i32 1, ptr %13, align 4
  br label %61

61:                                               ; preds = %51, %50, %32, %23
  call void @llvm.lifetime.end.p0(i64 4, ptr %12) #9
  %62 = load i1, ptr %6, align 1
  ret i1 %62
}