; Function Attrs: null_pointer_is_valid sspstrong uwtable
define internal zeroext i1 @capture_prism(ptr noundef %0, i32 noundef %1, i32 noundef %2, ptr noundef %3, ptr noundef %4) #0 {
  %6 = icmp ugt i32 %1, -5
  %7 = add i32 %1, 4
  %.not = icmp ugt i32 %7, %2
  %or.cond28 = or i1 %6, %.not
  br i1 %or.cond28, label %32, label %8

8:                                                ; preds = %5
  %9 = load i8, ptr %0, align 1
  %10 = zext i8 %9 to i32
  %11 = shl nuw i32 %10, 24
  %12 = getelementptr i8, ptr %0, i64 1
  %13 = load i8, ptr %12, align 1
  %14 = zext i8 %13 to i32
  %15 = shl nuw nsw i32 %14, 16
  %16 = or disjoint i32 %15, %11
  %17 = getelementptr i8, ptr %0, i64 2
  %18 = load i8, ptr %17, align 1
  %19 = zext i8 %18 to i32
  %20 = shl nuw nsw i32 %19, 8
  %21 = or disjoint i32 %16, %20
  %22 = getelementptr i8, ptr %0, i64 3
  %23 = load i8, ptr %22, align 1
  %24 = zext i8 %23 to i32
  %25 = or disjoint i32 %21, %24
  %26 = add i32 %25, 2145316863
  %or.cond = icmp ult i32 %26, 2
  br i1 %or.cond, label %.sink.split, label %27

27:                                               ; preds = %8
  %28 = add i32 %1, 144
  %29 = icmp ugt i32 %1, -145
  %.not27 = icmp ugt i32 %28, %2
  %or.cond29 = or i1 %29, %.not27
  br i1 %or.cond29, label %32, label %.sink.split

.sink.split:                                      ; preds = %27, %8
  %ieee80211_cap_handle.sink = phi ptr [ @wlancap_cap_handle, %8 ], [ @ieee80211_cap_handle, %27 ]
  %.sink30 = phi i32 [ %1, %8 ], [ %28, %27 ]
  %30 = load ptr, ptr %ieee80211_cap_handle.sink, align 8
  %31 = tail call zeroext i1 @call_capture_dissector(ptr noundef %30, ptr noundef %0, i32 noundef %.sink30, i32 noundef %2, ptr noundef %3, ptr noundef %4)
  br label %32

32:                                               ; preds = %.sink.split, %27, %5
  %.0 = phi i1 [ false, %5 ], [ false, %27 ], [ %31, %.sink.split ]
  ret i1 %.0
}